target datalayout = "e-m:e-p270:32:32-p271:32:32-p272:64:64-i64:64-i128:128-f80:128-n8:16:32:64-S128"
target triple = "x86_64-pc-linux-gnu"

%struct.pm_regexp_parser_t = type { ptr, ptr, ptr, ptr, i8, i8, ptr, ptr, ptr, ptr, ptr }

; Function Attrs: nounwind sspstrong uwtable
define internal zeroext i1 @pm_regexp_parse_range_quantifier(ptr noundef %0) #0 {
  %2 = alloca i1, align 1
  %3 = alloca ptr, align 8
  %4 = alloca ptr, align 8
  %5 = alloca i32, align 4
  %6 = alloca i32, align 4
  store ptr %0, ptr %3, align 8, !tbaa !18
  call void @llvm.lifetime.start.p0(i64 8, ptr %4) #8
  %7 = load ptr, ptr %3, align 8, !tbaa !18
  %8 = getelementptr inbounds nuw %struct.pm_regexp_parser_t, ptr %7, i32 0, i32 2
  %9 = load ptr, ptr %8, align 8, !tbaa !22
  store ptr %9, ptr %4, align 8, !tbaa !12
  call void @llvm.lifetime.start.p0(i64 4, ptr %5) #8
  store i32 0, ptr %5, align 4, !tbaa !65
  br label %10

10:                                               ; preds = %109, %1
  br label %11

11:                                               ; preds = %10
  %12 = load ptr, ptr %3, align 8, !tbaa !18
  %13 = getelementptr inbounds nuw %struct.pm_regexp_parser_t, ptr %12, i32 0, i32 2
  %14 = load ptr, ptr %13, align 8, !tbaa !22
  %15 = load ptr, ptr %3, align 8, !tbaa !18
  %16 = getelementptr inbounds nuw %struct.pm_regexp_parser_t, ptr %15, i32 0, i32 3
  %17 = load ptr, ptr %16, align 8, !tbaa !23
  %18 = icmp uge ptr %14, %17
  br i1 %18, label %19, label %23

19:                                               ; preds = %11
  %20 = load ptr, ptr %4, align 8, !tbaa !12
  %21 = load ptr, ptr %3, align 8, !tbaa !18
  %22 = getelementptr inbounds nuw %struct.pm_regexp_parser_t, ptr %21, i32 0, i32 2
  store ptr %20, ptr %22, align 8, !tbaa !22
  store i1 true, ptr %2, align 1
  store i32 1, ptr %6, align 4
  br label %110

23:                                               ; preds = %11
  %24 = load i32, ptr %5, align 4, !tbaa !65
  switch i32 %24, label %109 [
    i32 0, label %25
    i32 1, label %46
    i32 3, label %72
    i32 2, label %88
  ]

25:                                               ; preds = %23
  %26 = load ptr, ptr %3, align 8, !tbaa !18
  %27 = getelementptr inbounds nuw %struct.pm_regexp_parser_t, ptr %26, i32 0, i32 2
  %28 = load ptr, ptr %27, align 8, !tbaa !22
  %29 = load i8, ptr %28, align 1, !tbaa !54
  %30 = zext i8 %29 to i32
  switch i32 %30, label %41 [
    i32 48, label %31
    i32 49, label %31
    i32 50, label %31
    i32 51, label %31
    i32 52, label %31
    i32 53, label %31
    i32 54, label %31
    i32 55, label %31
    i32 56, label %31
    i32 57, label %31
    i32 44, label %36
  ]

31:                                               ; preds = %25, %25, %25, %25, %25, %25, %25, %25, %25, %25
  %32 = load ptr, ptr %3, align 8, !tbaa !18
  %33 = getelementptr inbounds nuw %struct.pm_regexp_parser_t, ptr %32, i32 0, i32 2
  %34 = load ptr, ptr %33, align 8, !tbaa !22
  %35 = getelementptr i8, ptr %34, i32 1
  store ptr %35, ptr %33, align 8, !tbaa !22
  store i32 1, ptr %5, align 4, !tbaa !65
  br label %45

36:                                               ; preds = %25
  %37 = load ptr, ptr %3, align 8, !tbaa !18
  %38 = getelementptr inbounds nuw %struct.pm_regexp_parser_t, ptr %37, i32 0, i32 2
  %39 = load ptr, ptr %38, align 8, !tbaa !22
  %40 = getelementptr i8, ptr %39, i32 1
  store ptr %40, ptr %38, align 8, !tbaa !22
  store i32 3, ptr %5, align 4, !tbaa !65
  br label %45

41:                                               ; preds = %25
  %42 = load ptr, ptr %4, align 8, !tbaa !12
  %43 = load ptr, ptr %3, align 8, !tbaa !18
  %44 = getelementptr inbounds nuw %struct.pm_regexp_parser_t, ptr %43, i32 0, i32 2
  store ptr %42, ptr %44, align 8, !tbaa !22
  store i1 true, ptr %2, align 1
  store i32 1, ptr %6, align 4
  br label %110

45:                                               ; preds = %36, %31
  br label %109

46:                                               ; preds = %23
  %47 = load ptr, ptr %3, align 8, !tbaa !18
  %48 = getelementptr inbounds nuw %struct.pm_regexp_parser_t, ptr %47, i32 0, i32 2
  %49 = load ptr, ptr %48, align 8, !tbaa !22
  %50 = load i8, ptr %49, align 1, !tbaa !54
  %51 = zext i8 %50 to i32
  switch i32 %51, label %67 [
    i32 48, label %52
    i32 49, label %52
    i32 50, label %52
    i32 51, label %52
    i32 52, label %52
    i32 53, label %52
    i32 54, label %52
    i32 55, label %52
    i32 56, label %52
    i32 57, label %52
    i32 44, label %57
    i32 125, label %62
  ]

52:                                               ; preds = %46, %46, %46, %46, %46, %46, %46, %46, %46, %46
  %53 = load ptr, ptr %3, align 8, !tbaa !18
  %54 = getelementptr inbounds nuw %struct.pm_regexp_parser_t, ptr %53, i32 0, i32 2
  %55 = load ptr, ptr %54, align 8, !tbaa !22
  %56 = getelementptr i8, ptr %55, i32 1
  store ptr %56, ptr %54, align 8, !tbaa !22
  br label %71

57:                                               ; preds = %46
  %58 = load ptr, ptr %3, align 8, !tbaa !18
  %59 = getelementptr inbounds nuw %struct.pm_regexp_parser_t, ptr %58, i32 0, i32 2
  %60 = load ptr, ptr %59, align 8, !tbaa !22
  %61 = getelementptr i8, ptr %60, i32 1
  store ptr %61, ptr %59, align 8, !tbaa !22
  store i32 2, ptr %5, align 4, !tbaa !65
  br label %71

62:                                               ; preds = %46
  %63 = load ptr, ptr %3, align 8, !tbaa !18
  %64 = getelementptr inbounds nuw %struct.pm_regexp_parser_t, ptr %63, i32 0, i32 2
  %65 = load ptr, ptr %64, align 8, !tbaa !22
  %66 = getelementptr i8, ptr %65, i32 1
  store ptr %66, ptr %64, align 8, !tbaa !22
  store i1 true, ptr %2, align 1
  store i32 1, ptr %6, align 4
  br label %110

67:                                               ; preds = %46
  %68 = load ptr, ptr %4, align 8, !tbaa !12
  %69 = load ptr, ptr %3, align 8, !tbaa !18
  %70 = getelementptr inbounds nuw %struct.pm_regexp_parser_t, ptr %69, i32 0, i32 2
  store ptr %68, ptr %70, align 8, !tbaa !22
  store i1 true, ptr %2, align 1
  store i32 1, ptr %6, align 4
  br label %110

71:                                               ; preds = %57, %52
  br label %109

72:                                               ; preds = %23
  %73 = load ptr, ptr %3, align 8, !tbaa !18
  %74 = getelementptr inbounds nuw %struct.pm_regexp_parser_t, ptr %73, i32 0, i32 2
  %75 = load ptr, ptr %74, align 8, !tbaa !22
  %76 = load i8, ptr %75, align 1, !tbaa !54
  %77 = zext i8 %76 to i32
  switch i32 %77, label %83 [
    i32 48, label %78
    i32 49, label %78
    i32 50, label %78
    i32 51, label %78
    i32 52, label %78
    i32 53, label %78
    i32 54, label %78
    i32 55, label %78
    i32 56, label %78
    i32 57, label %78
  ]

78:                                               ; preds = %72, %72, %72, %72, %72, %72, %72, %72, %72, %72
  %79 = load ptr, ptr %3, align 8, !tbaa !18
  %80 = getelementptr inbounds nuw %struct.pm_regexp_parser_t, ptr %79, i32 0, i32 2
  %81 = load ptr, ptr %80, align 8, !tbaa !22
  %82 = getelementptr i8, ptr %81, i32 1
  store ptr %82, ptr %80, align 8, !tbaa !22
  store i32 2, ptr %5, align 4, !tbaa !65
  br label %87

83:                                               ; preds = %72
  %84 = load ptr, ptr %4, align 8, !tbaa !12
  %85 = load ptr, ptr %3, align 8, !tbaa !18
  %86 = getelementptr inbounds nuw %struct.pm_regexp_parser_t, ptr %85, i32 0, i32 2
  store ptr %84, ptr %86, align 8, !tbaa !22
  store i1 true, ptr %2, align 1
  store i32 1, ptr %6, align 4
  br label %110

87:                                               ; preds = %78
  br label %109

88:                                               ; preds = %23
  %89 = load ptr, ptr %3, align 8, !tbaa !18
  %90 = getelementptr inbounds nuw %struct.pm_regexp_parser_t, ptr %89, i32 0, i32 2
  %91 = load ptr, ptr %90, align 8, !tbaa !22
  %92 = load i8, ptr %91, align 1, !tbaa !54
  %93 = zext i8 %92 to i32
  switch i32 %93, label %104 [
    i32 48, label %94
    i32 49, label %94
    i32 50, label %94
    i32 51, label %94
    i32 52, label %94
    i32 53, label %94
    i32 54, label %94
    i32 55, label %94
    i32 56, label %94
    i32 57, label %94
    i32 125, label %99
  ]

94:                                               ; preds = %88, %88, %88, %88, %88, %88, %88, %88, %88, %88
  %95 = load ptr, ptr %3, align 8, !tbaa !18
  %96 = getelementptr inbounds nuw %struct.pm_regexp_parser_t, ptr %95, i32 0, i32 2
  %97 = load ptr, ptr %96, align 8, !tbaa !22
  %98 = getelementptr i8, ptr %97, i32 1
  store ptr %98, ptr %96, align 8, !tbaa !22
  br label %108

99:                                               ; preds = %88
  %100 = load ptr, ptr %3, align 8, !tbaa !18
  %101 = getelementptr inbounds nuw %struct.pm_regexp_parser_t, ptr %100, i32 0, i32 2
  %102 = load ptr, ptr %101, align 8, !tbaa !22
  %103 = getelementptr i8, ptr %102, i32 1
  store ptr %103, ptr %101, align 8, !tbaa !22
  store i1 true, ptr %2, align 1
  store i32 1, ptr %6, align 4
  br label %110

104:                                              ; preds = %88
  %105 = load ptr, ptr %4, align 8, !tbaa !12
  %106 = load ptr, ptr %3, align 8, !tbaa !18
  %107 = getelementptr inbounds nuw %struct.pm_regexp_parser_t, ptr %106, i32 0, i32 2
  store ptr %105, ptr %107, align 8, !tbaa !22
  store i1 true, ptr %2, align 1
  store i32 1, ptr %6, align 4
  br label %110

108:                                              ; preds = %94
  br label %109

109:                                              ; preds = %23, %108, %87, %71, %45
  br label %10

110:                                              ; preds = %104, %99, %83, %67, %62, %41, %19
  call void @llvm.lifetime.end.p0(i64 4, ptr %5) #8
  call void @llvm.lifetime.end.p0(i64 8, ptr %4) #8
  %111 = load i1, ptr %2, align 1
  ret i1 %111
}

; Function Attrs: inlinehint nounwind sspstrong uwtable
define internal zeroext i1 @pm_regexp_char_is_eof(ptr noundef %0) #2 {
  %2 = alloca ptr, align 8
  store ptr %0, ptr %2, align 8, !tbaa !18
  %3 = load ptr, ptr %2, align 8, !tbaa !18
  %4 = getelementptr inbounds nuw %struct.pm_regexp_parser_t, ptr %3, i32 0, i32 2
  %5 = load ptr, ptr %4, align 8, !tbaa !22
  %6 = load ptr, ptr %2, align 8, !tbaa !18
  %7 = getelementptr inbounds nuw %struct.pm_regexp_parser_t, ptr %6, i32 0, i32 3
  %8 = load ptr, ptr %7, align 8, !tbaa !23
  %9 = icmp uge ptr %5, %8
  ret i1 %9
}

; Function Attrs: nounwind sspstrong uwtable
define internal zeroext i1 @pm_regexp_parse_quantifier(ptr noundef %0) #0 {
  %2 = alloca i1, align 1
  %3 = alloca ptr, align 8
  store ptr %0, ptr %3, align 8, !tbaa !18
  br label %4

4:                                                ; preds = %29, %1
  %5 = load ptr, ptr %3, align 8, !tbaa !18
  %6 = call zeroext i1 @pm_regexp_char_is_eof(ptr noundef %5)
  %7 = xor i1 %6, true
  br i1 %7, label %8, label %30

8:                                                ; preds = %4
  %9 = load ptr, ptr %3, align 8, !tbaa !18
  %10 = getelementptr inbounds nuw %struct.pm_regexp_parser_t, ptr %9, i32 0, i32 2
  %11 = load ptr, ptr %10, align 8, !tbaa !22
  %12 = load i8, ptr %11, align 1, !tbaa !54
  %13 = zext i8 %12 to i32
  switch i32 %13, label %28 [
    i32 42, label %14
    i32 43, label %14
    i32 63, label %14
    i32 123, label %19
  ]

14:                                               ; preds = %8, %8, %8
  %15 = load ptr, ptr %3, align 8, !tbaa !18
  %16 = getelementptr inbounds nuw %struct.pm_regexp_parser_t, ptr %15, i32 0, i32 2
  %17 = load ptr, ptr %16, align 8, !tbaa !22
  %18 = getelementptr i8, ptr %17, i32 1
  store ptr %18, ptr %16, align 8, !tbaa !22
  br label %29

19:                                               ; preds = %8
  %20 = load ptr, ptr %3, align 8, !tbaa !18
  %21 = getelementptr inbounds nuw %struct.pm_regexp_parser_t, ptr %20, i32 0, i32 2
  %22 = load ptr, ptr %21, align 8, !tbaa !22
  %23 = getelementptr i8, ptr %22, i32 1
  store ptr %23, ptr %21, align 8, !tbaa !22
  %24 = load ptr, ptr %3, align 8, !tbaa !18
  %25 = call zeroext i1 @pm_regexp_parse_range_quantifier(ptr noundef %24)
  br i1 %25, label %27, label %26

26:                                               ; preds = %19
  store i1 false, ptr %2, align 1
  br label %31

27:                                               ; preds = %19
  br label %29

28:                                               ; preds = %8
  store i1 true, ptr %2, align 1
  br label %31

29:                                               ; preds = %27, %14
  br label %4, !llvm.loop !58

30:                                               ; preds = %4
  store i1 true, ptr %2, align 1
  br label %31

31:                                               ; preds = %30, %28, %26
  %32 = load i1, ptr %2, align 1
  ret i1 %32
}