; Function Attrs: nofree norecurse nosync nounwind sspstrong memory(read, argmem: readwrite, inaccessiblemem: none) uwtable
define internal fastcc void @pm_regexp_parse_quantifier(ptr noundef nonnull captures(none) %0) unnamed_addr #2 {
  %2 = getelementptr i8, ptr %0, i64 16
  %3 = getelementptr i8, ptr %0, i64 24
  %.val6 = load ptr, ptr %3, align 8, !tbaa !17
  %.val617 = ptrtoint ptr %.val6 to i64
  %.promoted = load ptr, ptr %2, align 8, !tbaa !16
  %.not11 = icmp ult ptr %.promoted, %.val6
  br i1 %.not11, label %.lr.ph, label %._crit_edge

.lr.ph:                                           ; preds = %1, %pm_regexp_parse_range_quantifier.exit
  %storemerge1012 = phi ptr [ %storemerge, %pm_regexp_parse_range_quantifier.exit ], [ %.promoted, %1 ]
  %storemerge101218 = ptrtoint ptr %storemerge1012 to i64
  %4 = load i8, ptr %storemerge1012, align 1, !tbaa !46
  switch i8 %4, label %._crit_edge [
    i8 42, label %5
    i8 43, label %5
    i8 63, label %5
    i8 123, label %7
  ]

5:                                                ; preds = %.lr.ph, %.lr.ph, %.lr.ph
  %6 = getelementptr i8, ptr %storemerge1012, i64 1
  br label %pm_regexp_parse_range_quantifier.exit

7:                                                ; preds = %.lr.ph
  %8 = getelementptr i8, ptr %storemerge1012, i64 1
  store ptr %8, ptr %2, align 8, !tbaa !16
  %.not35.i = icmp ult ptr %8, %.val6
  br i1 %.not35.i, label %.lr.ph.i.preheader, label %pm_regexp_parse_range_quantifier.exit

.lr.ph.i.preheader:                               ; preds = %7
  %scevgep = getelementptr i8, ptr %storemerge1012, i64 %.val617
  %9 = sub i64 0, %storemerge101218
  %scevgep19 = getelementptr i8, ptr %scevgep, i64 %9
  br label %.lr.ph.i

.lr.ph.i:                                         ; preds = %.lr.ph.i.preheader, %23
  %.036.i = phi i32 [ %.1.i, %23 ], [ 0, %.lr.ph.i.preheader ]
  %10 = phi ptr [ %24, %23 ], [ %8, %.lr.ph.i.preheader ]
  %11 = load i8, ptr %10, align 1, !tbaa !46
  switch i32 %.036.i, label %default.unreachable [
    i32 0, label %12
    i32 1, label %14
    i32 3, label %18
    i32 2, label %19
  ]

12:                                               ; preds = %.lr.ph.i
  %switch.tableidx = add i8 %11, -44
  %13 = icmp ult i8 %switch.tableidx, 14
  br i1 %13, label %switch.hole_check, label %pm_regexp_parse_range_quantifier.exit

14:                                               ; preds = %.lr.ph.i
  switch i8 %11, label %pm_regexp_parse_range_quantifier.exit [
    i8 48, label %23
    i8 49, label %23
    i8 50, label %23
    i8 51, label %23
    i8 52, label %23
    i8 53, label %23
    i8 54, label %23
    i8 55, label %23
    i8 56, label %23
    i8 57, label %23
    i8 44, label %15
    i8 125, label %16
  ]

15:                                               ; preds = %14
  br label %23

16:                                               ; preds = %14
  %17 = getelementptr i8, ptr %10, i64 1
  br label %pm_regexp_parse_range_quantifier.exit

18:                                               ; preds = %.lr.ph.i
  %.off.i = add i8 %11, -48
  %switch.i = icmp ult i8 %.off.i, 10
  br i1 %switch.i, label %23, label %pm_regexp_parse_range_quantifier.exit

19:                                               ; preds = %.lr.ph.i
  switch i8 %11, label %pm_regexp_parse_range_quantifier.exit [
    i8 48, label %23
    i8 49, label %23
    i8 50, label %23
    i8 51, label %23
    i8 52, label %23
    i8 53, label %23
    i8 54, label %23
    i8 55, label %23
    i8 56, label %23
    i8 57, label %23
    i8 125, label %20
  ]

20:                                               ; preds = %19
  %21 = getelementptr i8, ptr %10, i64 1
  br label %pm_regexp_parse_range_quantifier.exit

default.unreachable:                              ; preds = %.lr.ph.i
  unreachable

switch.hole_check:                                ; preds = %12
  %switch.maskindex = zext nneg i8 %switch.tableidx to i16
  %switch.shifted = lshr i16 16369, %switch.maskindex
  %switch.lobit = trunc i16 %switch.shifted to i1
  br i1 %switch.lobit, label %switch.lookup, label %pm_regexp_parse_range_quantifier.exit

switch.lookup:                                    ; preds = %switch.hole_check
  %22 = zext nneg i8 %switch.tableidx to i64
  %switch.gep = getelementptr inbounds nuw [14 x i32], ptr @switch.table.pm_regexp_parse_quantifier, i64 0, i64 %22
  %switch.load = load i32, ptr %switch.gep, align 4
  br label %23

23:                                               ; preds = %switch.lookup, %19, %19, %19, %19, %19, %19, %19, %19, %19, %19, %18, %15, %14, %14, %14, %14, %14, %14, %14, %14, %14, %14
  %.1.i = phi i32 [ 2, %15 ], [ 1, %14 ], [ 1, %14 ], [ 1, %14 ], [ 1, %14 ], [ 1, %14 ], [ 1, %14 ], [ 1, %14 ], [ 1, %14 ], [ 1, %14 ], [ 1, %14 ], [ 2, %18 ], [ 2, %19 ], [ 2, %19 ], [ 2, %19 ], [ 2, %19 ], [ 2, %19 ], [ 2, %19 ], [ 2, %19 ], [ 2, %19 ], [ 2, %19 ], [ 2, %19 ], [ %switch.load, %switch.lookup ]
  %24 = getelementptr i8, ptr %10, i64 1
  store ptr %24, ptr %2, align 8, !tbaa !16
  %exitcond.not = icmp eq ptr %24, %scevgep19
  br i1 %exitcond.not, label %pm_regexp_parse_range_quantifier.exit, label %.lr.ph.i

pm_regexp_parse_range_quantifier.exit:            ; preds = %23, %19, %18, %14, %12, %switch.hole_check, %20, %16, %7, %5
  %storemerge = phi ptr [ %6, %5 ], [ %21, %20 ], [ %17, %16 ], [ %8, %7 ], [ %8, %switch.hole_check ], [ %8, %12 ], [ %8, %14 ], [ %8, %18 ], [ %8, %19 ], [ %8, %23 ]
  store ptr %storemerge, ptr %2, align 8, !tbaa !16
  %.not = icmp ult ptr %storemerge, %.val6
  br i1 %.not, label %.lr.ph, label %._crit_edge, !llvm.loop !58

._crit_edge:                                      ; preds = %.lr.ph, %pm_regexp_parse_range_quantifier.exit, %1
  ret void
}